target datalayout = "e-m:e-p270:32:32-p271:32:32-p272:64:64-i64:64-i128:128-f80:128-n8:16:32:64-S128"
target triple = "x86_64-pc-linux-gnu"

%struct.lua_State = type { %struct.GCRef, i8, i8, i8, i8, %struct.MRef, %struct.GCRef, ptr, ptr, %struct.MRef, %struct.MRef, %struct.GCRef, %struct.GCRef, ptr, i32 }
%struct.MRef = type { i64 }
%struct.GCRef = type { i64 }
%union.TValue = type { i64 }
%struct.GCproto = type { %struct.GCRef, i8, i8, i8, i8, i32, i32, %struct.GCRef, %struct.MRef, %struct.MRef, i32, i32, i32, i8, i8, i16, %struct.GCRef, i32, i32, %struct.MRef, %struct.MRef, %struct.MRef }
%struct.GCfuncC = type { %struct.GCRef, i8, i8, i8, i8, %struct.GCRef, %struct.GCRef, %struct.MRef, ptr, [1 x %union.TValue] }

@.str.9 = private unnamed_addr constant [24 x i8] c"store to dead GC object\00", align 1
@.str.13 = private unnamed_addr constant [12 x i8] c"linedefined\00", align 1
@.str.14 = private unnamed_addr constant [16 x i8] c"lastlinedefined\00", align 1
@.str.15 = private unnamed_addr constant [11 x i8] c"stackslots\00", align 1
@.str.16 = private unnamed_addr constant [7 x i8] c"params\00", align 1
@.str.17 = private unnamed_addr constant [10 x i8] c"bytecodes\00", align 1
@.str.18 = private unnamed_addr constant [9 x i8] c"gcconsts\00", align 1
@.str.19 = private unnamed_addr constant [8 x i8] c"nconsts\00", align 1
@.str.20 = private unnamed_addr constant [9 x i8] c"upvalues\00", align 1
@.str.21 = private unnamed_addr constant [12 x i8] c"currentline\00", align 1
@.str.22 = private unnamed_addr constant [9 x i8] c"isvararg\00", align 1
@.str.23 = private unnamed_addr constant [9 x i8] c"children\00", align 1
@.str.24 = private unnamed_addr constant [7 x i8] c"source\00", align 1
@.str.25 = private unnamed_addr constant [4 x i8] c"loc\00", align 1
@.str.26 = private unnamed_addr constant [6 x i8] c"proto\00", align 1
@.str.27 = private unnamed_addr constant [5 x i8] c"ffid\00", align 1
@.str.28 = private unnamed_addr constant [5 x i8] c"addr\00", align 1

; Function Attrs: alwaysinline nounwind uwtable
define internal void @checklivetv(ptr noundef %0, ptr noundef %1, ptr noundef %2) #5 {
  %4 = alloca ptr, align 8
  %5 = alloca ptr, align 8
  %6 = alloca ptr, align 8
  store ptr %0, ptr %4, align 8, !tbaa !4
  store ptr %1, ptr %5, align 8, !tbaa !56
  store ptr %2, ptr %6, align 8, !tbaa !41
  ret void
}

; Function Attrs: alwaysinline nounwind uwtable
define internal void @setgcVraw(ptr noundef %0, ptr noundef %1, i32 noundef %2) #5 {
  %4 = alloca ptr, align 8
  %5 = alloca ptr, align 8
  %6 = alloca i32, align 4
  store ptr %0, ptr %4, align 8, !tbaa !56
  store ptr %1, ptr %5, align 8, !tbaa !57
  store i32 %2, ptr %6, align 4, !tbaa !35
  %7 = load ptr, ptr %5, align 8, !tbaa !57
  %8 = ptrtoint ptr %7 to i64
  %9 = load i32, ptr %6, align 4, !tbaa !35
  %10 = zext i32 %9 to i64
  %11 = shl i64 %10, 47
  %12 = or i64 %8, %11
  %13 = load ptr, ptr %4, align 8, !tbaa !56
  %14 = getelementptr inbounds nuw %struct.GCRef, ptr %13, i32 0, i32 0
  store i64 %12, ptr %14, align 8, !tbaa !37
  ret void
}

; Function Attrs: alwaysinline nounwind uwtable
define internal void @setgcV(ptr noundef %0, ptr noundef %1, ptr noundef %2, i32 noundef %3) #5 {
  %5 = alloca ptr, align 8
  %6 = alloca ptr, align 8
  %7 = alloca ptr, align 8
  %8 = alloca i32, align 4
  store ptr %0, ptr %5, align 8, !tbaa !4
  store ptr %1, ptr %6, align 8, !tbaa !56
  store ptr %2, ptr %7, align 8, !tbaa !57
  store i32 %3, ptr %8, align 4, !tbaa !35
  %9 = load ptr, ptr %6, align 8, !tbaa !56
  %10 = load ptr, ptr %7, align 8, !tbaa !57
  %11 = load i32, ptr %8, align 4, !tbaa !35
  call void @setgcVraw(ptr noundef %9, ptr noundef %10, i32 noundef %11)
  %12 = load ptr, ptr %5, align 8, !tbaa !4
  %13 = load ptr, ptr %6, align 8, !tbaa !56
  call void @checklivetv(ptr noundef %12, ptr noundef %13, ptr noundef @.str.9)
  ret void
}

; Function Attrs: alwaysinline nounwind uwtable
define internal void @setintV(ptr noundef %0, i32 noundef %1) #5 {
  %3 = alloca ptr, align 8
  %4 = alloca i32, align 4
  store ptr %0, ptr %3, align 8, !tbaa !56
  store i32 %1, ptr %4, align 4, !tbaa !35
  %5 = load i32, ptr %4, align 4, !tbaa !35
  %6 = sitofp i32 %5 to double
  %7 = load ptr, ptr %3, align 8, !tbaa !56
  store double %6, ptr %7, align 8, !tbaa !37
  ret void
}

; Function Attrs: alwaysinline nounwind uwtable
define internal void @setint64V(ptr noundef %0, i64 noundef %1) #5 {
  %3 = alloca ptr, align 8
  %4 = alloca i64, align 8
  store ptr %0, ptr %3, align 8, !tbaa !56
  store i64 %1, ptr %4, align 8, !tbaa !61
  %5 = load i64, ptr %4, align 8, !tbaa !61
  %6 = sitofp i64 %5 to double
  %7 = load ptr, ptr %3, align 8, !tbaa !56
  store double %6, ptr %7, align 8, !tbaa !37
  ret void
}

; Function Attrs: alwaysinline nounwind uwtable
define internal void @setprotoV(ptr noundef %0, ptr noundef %1, ptr noundef %2) #5 {
  %4 = alloca ptr, align 8
  %5 = alloca ptr, align 8
  %6 = alloca ptr, align 8
  store ptr %0, ptr %4, align 8, !tbaa !4
  store ptr %1, ptr %5, align 8, !tbaa !56
  store ptr %2, ptr %6, align 8, !tbaa !70
  %7 = load ptr, ptr %4, align 8, !tbaa !4
  %8 = load ptr, ptr %5, align 8, !tbaa !56
  %9 = load ptr, ptr %6, align 8, !tbaa !70
  call void @setgcV(ptr noundef %7, ptr noundef %8, ptr noundef %9, i32 noundef -8)
  ret void
}

; Function Attrs: alwaysinline nounwind uwtable
define internal void @setstrV(ptr noundef %0, ptr noundef %1, ptr noundef %2) #5 {
  %4 = alloca ptr, align 8
  %5 = alloca ptr, align 8
  %6 = alloca ptr, align 8
  store ptr %0, ptr %4, align 8, !tbaa !4
  store ptr %1, ptr %5, align 8, !tbaa !56
  store ptr %2, ptr %6, align 8, !tbaa !39
  %7 = load ptr, ptr %4, align 8, !tbaa !4
  %8 = load ptr, ptr %5, align 8, !tbaa !56
  %9 = load ptr, ptr %6, align 8, !tbaa !39
  call void @setgcV(ptr noundef %7, ptr noundef %8, ptr noundef %9, i32 noundef -5)
  ret void
}

; Function Attrs: nounwind uwtable
define internal void @setintfield(ptr noundef %0, ptr noundef %1, ptr noundef %2, i32 noundef %3) #0 {
  %5 = alloca ptr, align 8
  %6 = alloca ptr, align 8
  %7 = alloca ptr, align 8
  %8 = alloca i32, align 4
  store ptr %0, ptr %5, align 8, !tbaa !4
  store ptr %1, ptr %6, align 8, !tbaa !59
  store ptr %2, ptr %7, align 8, !tbaa !41
  store i32 %3, ptr %8, align 4, !tbaa !35
  %9 = load ptr, ptr %5, align 8, !tbaa !4
  %10 = load ptr, ptr %6, align 8, !tbaa !59
  %11 = load ptr, ptr %5, align 8, !tbaa !4
  %12 = load ptr, ptr %7, align 8, !tbaa !41
  %13 = load ptr, ptr %7, align 8, !tbaa !41
  %14 = call i64 @strlen(ptr noundef %13) #12
  %15 = call ptr @lj_str_new(ptr noundef %11, ptr noundef %12, i64 noundef %14)
  %16 = call ptr @lj_tab_setstr(ptr noundef %9, ptr noundef %10, ptr noundef %15)
  %17 = load i32, ptr %8, align 4, !tbaa !35
  call void @setintV(ptr noundef %16, i32 noundef %17)
  ret void
}

; Function Attrs: nounwind uwtable
define internal i32 @lj_cf_jit_util_funcinfo(ptr noundef %0) #0 {
  %2 = alloca ptr, align 8
  %3 = alloca ptr, align 8
  %4 = alloca i32, align 4
  %5 = alloca ptr, align 8
  %6 = alloca ptr, align 8
  %7 = alloca ptr, align 8
  store ptr %0, ptr %2, align 8, !tbaa !4
  call void @llvm.lifetime.start.p0(i64 8, ptr %3) #9
  %8 = load ptr, ptr %2, align 8, !tbaa !4
  %9 = call ptr @lj_lib_checkLproto(ptr noundef %8, i32 noundef 1, i32 noundef 1)
  store ptr %9, ptr %3, align 8, !tbaa !70
  %10 = load ptr, ptr %3, align 8, !tbaa !70
  %11 = icmp ne ptr %10, null
  br i1 %11, label %12, label %119

12:                                               ; preds = %1
  call void @llvm.lifetime.start.p0(i64 4, ptr %4) #9
  %13 = load ptr, ptr %2, align 8, !tbaa !4
  %14 = call i32 @lj_lib_optint(ptr noundef %13, i32 noundef 2, i32 noundef 0)
  store i32 %14, ptr %4, align 4, !tbaa !35
  call void @llvm.lifetime.start.p0(i64 8, ptr %5) #9
  %15 = load ptr, ptr %2, align 8, !tbaa !4
  call void @lua_createtable(ptr noundef %15, i32 noundef 0, i32 noundef 16)
  %16 = load ptr, ptr %2, align 8, !tbaa !4
  %17 = getelementptr inbounds nuw %struct.lua_State, ptr %16, i32 0, i32 8
  %18 = load ptr, ptr %17, align 8, !tbaa !16
  %19 = getelementptr inbounds %union.TValue, ptr %18, i64 -1
  %20 = getelementptr inbounds nuw %struct.GCRef, ptr %19, i32 0, i32 0
  %21 = load i64, ptr %20, align 8, !tbaa !37
  %22 = and i64 %21, 140737488355327
  %23 = inttoptr i64 %22 to ptr
  store ptr %23, ptr %5, align 8, !tbaa !59
  %24 = load ptr, ptr %2, align 8, !tbaa !4
  %25 = load ptr, ptr %5, align 8, !tbaa !59
  %26 = load ptr, ptr %3, align 8, !tbaa !70
  %27 = getelementptr inbounds nuw %struct.GCproto, ptr %26, i32 0, i32 17
  %28 = load i32, ptr %27, align 8, !tbaa !71
  call void @setintfield(ptr noundef %24, ptr noundef %25, ptr noundef @.str.13, i32 noundef %28)
  %29 = load ptr, ptr %2, align 8, !tbaa !4
  %30 = load ptr, ptr %5, align 8, !tbaa !59
  %31 = load ptr, ptr %3, align 8, !tbaa !70
  %32 = getelementptr inbounds nuw %struct.GCproto, ptr %31, i32 0, i32 17
  %33 = load i32, ptr %32, align 8, !tbaa !71
  %34 = load ptr, ptr %3, align 8, !tbaa !70
  %35 = getelementptr inbounds nuw %struct.GCproto, ptr %34, i32 0, i32 18
  %36 = load i32, ptr %35, align 4, !tbaa !73
  %37 = add nsw i32 %33, %36
  call void @setintfield(ptr noundef %29, ptr noundef %30, ptr noundef @.str.14, i32 noundef %37)
  %38 = load ptr, ptr %2, align 8, !tbaa !4
  %39 = load ptr, ptr %5, align 8, !tbaa !59
  %40 = load ptr, ptr %3, align 8, !tbaa !70
  %41 = getelementptr inbounds nuw %struct.GCproto, ptr %40, i32 0, i32 4
  %42 = load i8, ptr %41, align 1, !tbaa !74
  %43 = zext i8 %42 to i32
  call void @setintfield(ptr noundef %38, ptr noundef %39, ptr noundef @.str.15, i32 noundef %43)
  %44 = load ptr, ptr %2, align 8, !tbaa !4
  %45 = load ptr, ptr %5, align 8, !tbaa !59
  %46 = load ptr, ptr %3, align 8, !tbaa !70
  %47 = getelementptr inbounds nuw %struct.GCproto, ptr %46, i32 0, i32 3
  %48 = load i8, ptr %47, align 2, !tbaa !75
  %49 = zext i8 %48 to i32
  call void @setintfield(ptr noundef %44, ptr noundef %45, ptr noundef @.str.16, i32 noundef %49)
  %50 = load ptr, ptr %2, align 8, !tbaa !4
  %51 = load ptr, ptr %5, align 8, !tbaa !59
  %52 = load ptr, ptr %3, align 8, !tbaa !70
  %53 = getelementptr inbounds nuw %struct.GCproto, ptr %52, i32 0, i32 5
  %54 = load i32, ptr %53, align 4, !tbaa !76
  call void @setintfield(ptr noundef %50, ptr noundef %51, ptr noundef @.str.17, i32 noundef %54)
  %55 = load ptr, ptr %2, align 8, !tbaa !4
  %56 = load ptr, ptr %5, align 8, !tbaa !59
  %57 = load ptr, ptr %3, align 8, !tbaa !70
  %58 = getelementptr inbounds nuw %struct.GCproto, ptr %57, i32 0, i32 10
  %59 = load i32, ptr %58, align 8, !tbaa !77
  call void @setintfield(ptr noundef %55, ptr noundef %56, ptr noundef @.str.18, i32 noundef %59)
  %60 = load ptr, ptr %2, align 8, !tbaa !4
  %61 = load ptr, ptr %5, align 8, !tbaa !59
  %62 = load ptr, ptr %3, align 8, !tbaa !70
  %63 = getelementptr inbounds nuw %struct.GCproto, ptr %62, i32 0, i32 11
  %64 = load i32, ptr %63, align 4, !tbaa !78
  call void @setintfield(ptr noundef %60, ptr noundef %61, ptr noundef @.str.19, i32 noundef %64)
  %65 = load ptr, ptr %2, align 8, !tbaa !4
  %66 = load ptr, ptr %5, align 8, !tbaa !59
  %67 = load ptr, ptr %3, align 8, !tbaa !70
  %68 = getelementptr inbounds nuw %struct.GCproto, ptr %67, i32 0, i32 13
  %69 = load i8, ptr %68, align 4, !tbaa !79
  %70 = zext i8 %69 to i32
  call void @setintfield(ptr noundef %65, ptr noundef %66, ptr noundef @.str.20, i32 noundef %70)
  %71 = load i32, ptr %4, align 4, !tbaa !35
  %72 = load ptr, ptr %3, align 8, !tbaa !70
  %73 = getelementptr inbounds nuw %struct.GCproto, ptr %72, i32 0, i32 5
  %74 = load i32, ptr %73, align 4, !tbaa !76
  %75 = icmp ult i32 %71, %74
  br i1 %75, label %76, label %82

76:                                               ; preds = %12
  %77 = load ptr, ptr %2, align 8, !tbaa !4
  %78 = load ptr, ptr %5, align 8, !tbaa !59
  %79 = load ptr, ptr %3, align 8, !tbaa !70
  %80 = load i32, ptr %4, align 4, !tbaa !35
  %81 = call i32 @lj_debug_line(ptr noundef %79, i32 noundef %80)
  call void @setintfield(ptr noundef %77, ptr noundef %78, ptr noundef @.str.21, i32 noundef %81)
  br label %82

82:                                               ; preds = %76, %12
  %83 = load ptr, ptr %2, align 8, !tbaa !4
  %84 = load ptr, ptr %3, align 8, !tbaa !70
  %85 = getelementptr inbounds nuw %struct.GCproto, ptr %84, i32 0, i32 14
  %86 = load i8, ptr %85, align 1, !tbaa !80
  %87 = zext i8 %86 to i32
  %88 = and i32 %87, 2
  call void @lua_pushboolean(ptr noundef %83, i32 noundef %88)
  %89 = load ptr, ptr %2, align 8, !tbaa !4
  call void @lua_setfield(ptr noundef %89, i32 noundef -2, ptr noundef @.str.22)
  %90 = load ptr, ptr %2, align 8, !tbaa !4
  %91 = load ptr, ptr %3, align 8, !tbaa !70
  %92 = getelementptr inbounds nuw %struct.GCproto, ptr %91, i32 0, i32 14
  %93 = load i8, ptr %92, align 1, !tbaa !80
  %94 = zext i8 %93 to i32
  %95 = and i32 %94, 1
  call void @lua_pushboolean(ptr noundef %90, i32 noundef %95)
  %96 = load ptr, ptr %2, align 8, !tbaa !4
  call void @lua_setfield(ptr noundef %96, i32 noundef -2, ptr noundef @.str.23)
  %97 = load ptr, ptr %2, align 8, !tbaa !4
  %98 = load ptr, ptr %2, align 8, !tbaa !4
  %99 = getelementptr inbounds nuw %struct.lua_State, ptr %98, i32 0, i32 8
  %100 = load ptr, ptr %99, align 8, !tbaa !16
  %101 = getelementptr inbounds nuw %union.TValue, ptr %100, i32 1
  store ptr %101, ptr %99, align 8, !tbaa !16
  %102 = load ptr, ptr %3, align 8, !tbaa !70
  %103 = getelementptr inbounds nuw %struct.GCproto, ptr %102, i32 0, i32 16
  %104 = getelementptr inbounds nuw %struct.GCRef, ptr %103, i32 0, i32 0
  %105 = load i64, ptr %104, align 8, !tbaa !81
  %106 = inttoptr i64 %105 to ptr
  call void @setstrV(ptr noundef %97, ptr noundef %100, ptr noundef %106)
  %107 = load ptr, ptr %2, align 8, !tbaa !4
  call void @lua_setfield(ptr noundef %107, i32 noundef -2, ptr noundef @.str.24)
  %108 = load ptr, ptr %2, align 8, !tbaa !4
  %109 = load ptr, ptr %3, align 8, !tbaa !70
  %110 = load i32, ptr %4, align 4, !tbaa !35
  call void @lj_debug_pushloc(ptr noundef %108, ptr noundef %109, i32 noundef %110)
  %111 = load ptr, ptr %2, align 8, !tbaa !4
  call void @lua_setfield(ptr noundef %111, i32 noundef -2, ptr noundef @.str.25)
  %112 = load ptr, ptr %2, align 8, !tbaa !4
  %113 = load ptr, ptr %2, align 8, !tbaa !4
  %114 = load ptr, ptr %5, align 8, !tbaa !59
  %115 = load ptr, ptr %2, align 8, !tbaa !4
  %116 = call ptr @lj_str_new(ptr noundef %115, ptr noundef @.str.26, i64 noundef 5)
  %117 = call ptr @lj_tab_setstr(ptr noundef %113, ptr noundef %114, ptr noundef %116)
  %118 = load ptr, ptr %3, align 8, !tbaa !70
  call void @setprotoV(ptr noundef %112, ptr noundef %117, ptr noundef %118)
  call void @llvm.lifetime.end.p0(i64 8, ptr %5) #9
  call void @llvm.lifetime.end.p0(i64 4, ptr %4) #9
  br label %164

119:                                              ; preds = %1
  call void @llvm.lifetime.start.p0(i64 8, ptr %6) #9
  %120 = load ptr, ptr %2, align 8, !tbaa !4
  %121 = getelementptr inbounds nuw %struct.lua_State, ptr %120, i32 0, i32 7
  %122 = load ptr, ptr %121, align 8, !tbaa !36
  %123 = getelementptr inbounds nuw %struct.GCRef, ptr %122, i32 0, i32 0
  %124 = load i64, ptr %123, align 8, !tbaa !37
  %125 = and i64 %124, 140737488355327
  %126 = inttoptr i64 %125 to ptr
  store ptr %126, ptr %6, align 8, !tbaa !38
  call void @llvm.lifetime.start.p0(i64 8, ptr %7) #9
  %127 = load ptr, ptr %2, align 8, !tbaa !4
  call void @lua_createtable(ptr noundef %127, i32 noundef 0, i32 noundef 4)
  %128 = load ptr, ptr %2, align 8, !tbaa !4
  %129 = getelementptr inbounds nuw %struct.lua_State, ptr %128, i32 0, i32 8
  %130 = load ptr, ptr %129, align 8, !tbaa !16
  %131 = getelementptr inbounds %union.TValue, ptr %130, i64 -1
  %132 = getelementptr inbounds nuw %struct.GCRef, ptr %131, i32 0, i32 0
  %133 = load i64, ptr %132, align 8, !tbaa !37
  %134 = and i64 %133, 140737488355327
  %135 = inttoptr i64 %134 to ptr
  store ptr %135, ptr %7, align 8, !tbaa !59
  %136 = load ptr, ptr %6, align 8, !tbaa !38
  %137 = getelementptr inbounds nuw %struct.GCfuncC, ptr %136, i32 0, i32 3
  %138 = load i8, ptr %137, align 2, !tbaa !37
  %139 = zext i8 %138 to i32
  %140 = icmp eq i32 %139, 1
  br i1 %140, label %148, label %141

141:                                              ; preds = %119
  %142 = load ptr, ptr %2, align 8, !tbaa !4
  %143 = load ptr, ptr %7, align 8, !tbaa !59
  %144 = load ptr, ptr %6, align 8, !tbaa !38
  %145 = getelementptr inbounds nuw %struct.GCfuncC, ptr %144, i32 0, i32 3
  %146 = load i8, ptr %145, align 2, !tbaa !37
  %147 = zext i8 %146 to i32
  call void @setintfield(ptr noundef %142, ptr noundef %143, ptr noundef @.str.27, i32 noundef %147)
  br label %148

148:                                              ; preds = %141, %119
  %149 = load ptr, ptr %2, align 8, !tbaa !4
  %150 = load ptr, ptr %7, align 8, !tbaa !59
  %151 = load ptr, ptr %2, align 8, !tbaa !4
  %152 = call ptr @lj_str_new(ptr noundef %151, ptr noundef @.str.28, i64 noundef 4)
  %153 = call ptr @lj_tab_setstr(ptr noundef %149, ptr noundef %150, ptr noundef %152)
  %154 = load ptr, ptr %6, align 8, !tbaa !38
  %155 = getelementptr inbounds nuw %struct.GCfuncC, ptr %154, i32 0, i32 8
  %156 = load ptr, ptr %155, align 8, !tbaa !37
  %157 = ptrtoint ptr %156 to i64
  call void @setint64V(ptr noundef %153, i64 noundef %157)
  %158 = load ptr, ptr %2, align 8, !tbaa !4
  %159 = load ptr, ptr %7, align 8, !tbaa !59
  %160 = load ptr, ptr %6, align 8, !tbaa !38
  %161 = getelementptr inbounds nuw %struct.GCfuncC, ptr %160, i32 0, i32 4
  %162 = load i8, ptr %161, align 1, !tbaa !37
  %163 = zext i8 %162 to i32
  call void @setintfield(ptr noundef %158, ptr noundef %159, ptr noundef @.str.20, i32 noundef %163)
  call void @llvm.lifetime.end.p0(i64 8, ptr %7) #9
  call void @llvm.lifetime.end.p0(i64 8, ptr %6) #9
  br label %164

164:                                              ; preds = %148, %82
  call void @llvm.lifetime.end.p0(i64 8, ptr %3) #9
  ret i32 1
}