; Function Attrs: nounwind uwtable
define internal noundef i32 @lj_cf_jit_util_funcinfo(ptr noundef %0) #0 {
  %2 = tail call ptr @lj_lib_checkLproto(ptr noundef %0, i32 noundef 1, i32 noundef 1) #8
  %.not = icmp eq ptr %2, null
  br i1 %.not, label %77, label %3

3:                                                ; preds = %1
  %4 = tail call i32 @lj_lib_optint(ptr noundef %0, i32 noundef 2, i32 noundef 0) #8
  tail call void @lua_createtable(ptr noundef %0, i32 noundef 0, i32 noundef 16) #8
  %5 = getelementptr inbounds nuw i8, ptr %0, i64 40
  %6 = load ptr, ptr %5, align 8, !tbaa !32
  %7 = getelementptr inbounds i8, ptr %6, i64 -8
  %8 = load i64, ptr %7, align 8, !tbaa !34
  %9 = and i64 %8, 140737488355327
  %10 = inttoptr i64 %9 to ptr
  %11 = getelementptr inbounds nuw i8, ptr %2, i64 72
  %12 = load i32, ptr %11, align 8, !tbaa !57
  %13 = tail call ptr @lj_str_new(ptr noundef %0, ptr noundef nonnull @.str.13, i64 noundef 11) #8
  %14 = tail call ptr @lj_tab_setstr(ptr noundef %0, ptr noundef %10, ptr noundef %13) #8
  %15 = sitofp i32 %12 to double
  store double %15, ptr %14, align 8, !tbaa !34
  %16 = load i32, ptr %11, align 8, !tbaa !57
  %17 = getelementptr inbounds nuw i8, ptr %2, i64 76
  %18 = load i32, ptr %17, align 4, !tbaa !59
  %19 = add nsw i32 %18, %16
  %20 = tail call ptr @lj_str_new(ptr noundef %0, ptr noundef nonnull @.str.14, i64 noundef 15) #8
  %21 = tail call ptr @lj_tab_setstr(ptr noundef %0, ptr noundef %10, ptr noundef %20) #8
  %22 = sitofp i32 %19 to double
  store double %22, ptr %21, align 8, !tbaa !34
  %23 = getelementptr inbounds nuw i8, ptr %2, i64 11
  %24 = load i8, ptr %23, align 1, !tbaa !60
  %25 = tail call ptr @lj_str_new(ptr noundef %0, ptr noundef nonnull @.str.15, i64 noundef 10) #8
  %26 = tail call ptr @lj_tab_setstr(ptr noundef %0, ptr noundef %10, ptr noundef %25) #8
  %27 = uitofp i8 %24 to double
  store double %27, ptr %26, align 8, !tbaa !34
  %28 = getelementptr inbounds nuw i8, ptr %2, i64 10
  %29 = load i8, ptr %28, align 2, !tbaa !61
  %30 = tail call ptr @lj_str_new(ptr noundef %0, ptr noundef nonnull @.str.16, i64 noundef 6) #8
  %31 = tail call ptr @lj_tab_setstr(ptr noundef %0, ptr noundef %10, ptr noundef %30) #8
  %32 = uitofp i8 %29 to double
  store double %32, ptr %31, align 8, !tbaa !34
  %33 = getelementptr inbounds nuw i8, ptr %2, i64 12
  %34 = load i32, ptr %33, align 4, !tbaa !62
  %35 = tail call ptr @lj_str_new(ptr noundef %0, ptr noundef nonnull @.str.17, i64 noundef 9) #8
  %36 = tail call ptr @lj_tab_setstr(ptr noundef %0, ptr noundef %10, ptr noundef %35) #8
  %37 = sitofp i32 %34 to double
  store double %37, ptr %36, align 8, !tbaa !34
  %38 = getelementptr inbounds nuw i8, ptr %2, i64 48
  %39 = load i32, ptr %38, align 8, !tbaa !63
  %40 = tail call ptr @lj_str_new(ptr noundef %0, ptr noundef nonnull @.str.18, i64 noundef 8) #8
  %41 = tail call ptr @lj_tab_setstr(ptr noundef %0, ptr noundef %10, ptr noundef %40) #8
  %42 = sitofp i32 %39 to double
  store double %42, ptr %41, align 8, !tbaa !34
  %43 = getelementptr inbounds nuw i8, ptr %2, i64 52
  %44 = load i32, ptr %43, align 4, !tbaa !64
  %45 = tail call ptr @lj_str_new(ptr noundef %0, ptr noundef nonnull @.str.19, i64 noundef 7) #8
  %46 = tail call ptr @lj_tab_setstr(ptr noundef %0, ptr noundef %10, ptr noundef %45) #8
  %47 = sitofp i32 %44 to double
  store double %47, ptr %46, align 8, !tbaa !34
  %48 = getelementptr inbounds nuw i8, ptr %2, i64 60
  %49 = load i8, ptr %48, align 4, !tbaa !65
  %50 = tail call ptr @lj_str_new(ptr noundef %0, ptr noundef nonnull @.str.20, i64 noundef 8) #8
  %51 = tail call ptr @lj_tab_setstr(ptr noundef %0, ptr noundef %10, ptr noundef %50) #8
  %52 = uitofp i8 %49 to double
  store double %52, ptr %51, align 8, !tbaa !34
  %53 = load i32, ptr %33, align 4, !tbaa !62
  %54 = icmp ult i32 %4, %53
  br i1 %54, label %55, label %60

55:                                               ; preds = %3
  %56 = tail call i32 @lj_debug_line(ptr noundef nonnull %2, i32 noundef %4) #8
  %57 = tail call ptr @lj_str_new(ptr noundef nonnull %0, ptr noundef nonnull @.str.21, i64 noundef 11) #8
  %58 = tail call ptr @lj_tab_setstr(ptr noundef nonnull %0, ptr noundef %10, ptr noundef %57) #8
  %59 = sitofp i32 %56 to double
  store double %59, ptr %58, align 8, !tbaa !34
  br label %60

60:                                               ; preds = %55, %3
  %61 = getelementptr inbounds nuw i8, ptr %2, i64 61
  %62 = load i8, ptr %61, align 1, !tbaa !66
  %63 = and i8 %62, 2
  %64 = zext nneg i8 %63 to i32
  tail call void @lua_pushboolean(ptr noundef nonnull %0, i32 noundef %64) #8
  tail call void @lua_setfield(ptr noundef nonnull %0, i32 noundef -2, ptr noundef nonnull @.str.22) #8
  %65 = load i8, ptr %61, align 1, !tbaa !66
  %66 = and i8 %65, 1
  %67 = zext nneg i8 %66 to i32
  tail call void @lua_pushboolean(ptr noundef nonnull %0, i32 noundef %67) #8
  tail call void @lua_setfield(ptr noundef nonnull %0, i32 noundef -2, ptr noundef nonnull @.str.23) #8
  %68 = load ptr, ptr %5, align 8, !tbaa !32
  %69 = getelementptr inbounds nuw i8, ptr %68, i64 8
  store ptr %69, ptr %5, align 8, !tbaa !32
  %70 = getelementptr inbounds nuw i8, ptr %2, i64 64
  %71 = load i64, ptr %70, align 8, !tbaa !67
  %72 = or i64 %71, -703687441776640
  store i64 %72, ptr %68, align 8, !tbaa !34
  tail call void @lua_setfield(ptr noundef nonnull %0, i32 noundef -2, ptr noundef nonnull @.str.24) #8
  tail call void @lj_debug_pushloc(ptr noundef nonnull %0, ptr noundef nonnull %2, i32 noundef %4) #8
  tail call void @lua_setfield(ptr noundef nonnull %0, i32 noundef -2, ptr noundef nonnull @.str.25) #8
  %73 = tail call ptr @lj_str_new(ptr noundef nonnull %0, ptr noundef nonnull @.str.26, i64 noundef 5) #8
  %74 = tail call ptr @lj_tab_setstr(ptr noundef nonnull %0, ptr noundef %10, ptr noundef %73) #8
  %75 = ptrtoint ptr %2 to i64
  %76 = or i64 %75, -1125899906842624
  store i64 %76, ptr %74, align 8, !tbaa !34
  br label %108

77:                                               ; preds = %1
  %78 = getelementptr inbounds nuw i8, ptr %0, i64 32
  %79 = load ptr, ptr %78, align 8, !tbaa !33
  %80 = load i64, ptr %79, align 8, !tbaa !34
  %81 = and i64 %80, 140737488355327
  %82 = inttoptr i64 %81 to ptr
  tail call void @lua_createtable(ptr noundef %0, i32 noundef 0, i32 noundef 4) #8
  %83 = getelementptr inbounds nuw i8, ptr %0, i64 40
  %84 = load ptr, ptr %83, align 8, !tbaa !32
  %85 = getelementptr inbounds i8, ptr %84, i64 -8
  %86 = load i64, ptr %85, align 8, !tbaa !34
  %87 = and i64 %86, 140737488355327
  %88 = inttoptr i64 %87 to ptr
  %89 = getelementptr inbounds nuw i8, ptr %82, i64 10
  %90 = load i8, ptr %89, align 2, !tbaa !34
  %91 = icmp eq i8 %90, 1
  br i1 %91, label %96, label %92

92:                                               ; preds = %77
  %93 = tail call ptr @lj_str_new(ptr noundef nonnull %0, ptr noundef nonnull @.str.27, i64 noundef 4) #8
  %94 = tail call ptr @lj_tab_setstr(ptr noundef nonnull %0, ptr noundef %88, ptr noundef %93) #8
  %95 = uitofp i8 %90 to double
  store double %95, ptr %94, align 8, !tbaa !34
  br label %96

96:                                               ; preds = %92, %77
  %97 = tail call ptr @lj_str_new(ptr noundef nonnull %0, ptr noundef nonnull @.str.28, i64 noundef 4) #8
  %98 = tail call ptr @lj_tab_setstr(ptr noundef nonnull %0, ptr noundef %88, ptr noundef %97) #8
  %99 = getelementptr inbounds nuw i8, ptr %82, i64 40
  %100 = load ptr, ptr %99, align 8, !tbaa !34
  %101 = ptrtoint ptr %100 to i64
  %102 = sitofp i64 %101 to double
  store double %102, ptr %98, align 8, !tbaa !34
  %103 = getelementptr inbounds nuw i8, ptr %82, i64 11
  %104 = load i8, ptr %103, align 1, !tbaa !34
  %105 = tail call ptr @lj_str_new(ptr noundef nonnull %0, ptr noundef nonnull @.str.20, i64 noundef 8) #8
  %106 = tail call ptr @lj_tab_setstr(ptr noundef nonnull %0, ptr noundef %88, ptr noundef %105) #8
  %107 = uitofp i8 %104 to double
  store double %107, ptr %106, align 8, !tbaa !34
  br label %108

108:                                              ; preds = %96, %60
  ret i32 1
}